; Function Attrs: nounwind uwtable
define internal void @SDL_MouseRelativeCursorVisibleChanged(ptr noundef writeonly captures(none) initializes((187, 188)) %0, ptr readnone captures(none) %1, ptr readnone captures(none) %2, ptr noundef %3) #0 {
  %5 = tail call zeroext i1 @SDL_GetStringBoolean(ptr noundef %3, i1 noundef zeroext false) #13
  %6 = xor i1 %5, true
  %7 = getelementptr inbounds nuw i8, ptr %0, i64 187
  %8 = zext i1 %6 to i8
  store i8 %8, ptr %7, align 1
  %9 = load ptr, ptr getelementptr inbounds nuw (i8, ptr @SDL_mouse, i64 128), align 8
  %.not.i = icmp eq ptr %9, null
  %.val.i = load ptr, ptr getelementptr inbounds nuw (i8, ptr @SDL_mouse, i64 272), align 8
  %.val14.i = load ptr, ptr getelementptr inbounds nuw (i8, ptr @SDL_mouse, i64 280), align 8
  br i1 %.not.i, label %19, label %10

10:                                               ; preds = %4
  %11 = load i8, ptr getelementptr inbounds nuw (i8, ptr @SDL_mouse, i64 288), align 8, !range !3, !noundef !4
  %12 = trunc nuw i8 %11 to i1
  br i1 %12, label %13, label %18

13:                                               ; preds = %10
  %14 = load i8, ptr getelementptr inbounds nuw (i8, ptr @SDL_mouse, i64 185), align 1, !range !3, !noundef !4
  %15 = trunc nuw i8 %14 to i1
  %16 = load i8, ptr getelementptr inbounds nuw (i8, ptr @SDL_mouse, i64 187), align 1, !range !3
  %17 = trunc nuw i8 %16 to i1
  %or.cond.i = select i1 %15, i1 %17, i1 false
  br i1 %or.cond.i, label %18, label %19

18:                                               ; preds = %13, %10
  br label %19

19:                                               ; preds = %18, %13, %4
  %.1.i = phi ptr [ null, %18 ], [ %.val14.i, %13 ], [ %.val.i, %4 ]
  %20 = load ptr, ptr getelementptr inbounds nuw (i8, ptr @SDL_mouse, i64 16), align 8
  %.not12.i = icmp eq ptr %20, null
  br i1 %.not12.i, label %SDL_RedrawCursor.exit, label %21

21:                                               ; preds = %19
  %22 = tail call zeroext i1 %20(ptr noundef %.1.i) #13
  br label %SDL_RedrawCursor.exit

SDL_RedrawCursor.exit:                            ; preds = %19, %21
  ret void
}